; ModuleID = '31/1065.c'
source_filename = "31/1065.c"
target datalayout = "e-m:e-p270:32:32-p271:32:32-p272:64:64-i64:64-f80:128-n8:16:32:64-S128"
target triple = "x86_64-pc-linux-gnu"

%struct.student = type { [20 x i8], [20 x i8], i8, i32, [10 x i8], [20 x i8], %struct.student* }

@__const.main.str = private unnamed_addr constant [10 x i8] c"end\00\00\00\00\00\00\00", align 1
@.str = private unnamed_addr constant [3 x i8] c"%s\00", align 1
@.str.1 = private unnamed_addr constant [15 x i8] c"%s %c %d %s %s\00", align 1
@.str.2 = private unnamed_addr constant [19 x i8] c"%s %s %c %d %s %s\0A\00", align 1

; Function Attrs: noinline nounwind uwtable
define dso_local i32 @main() #0 {
  %1 = alloca i32, align 4
  %2 = alloca %struct.student*, align 8
  %3 = alloca %struct.student*, align 8
  %4 = alloca [10 x i8], align 1
  store i32 0, i32* %1, align 4
  %5 = bitcast [10 x i8]* %4 to i8*
  call void @llvm.memcpy.p0i8.p0i8.i64(i8* align 1 %5, i8* align 1 getelementptr inbounds ([10 x i8], [10 x i8]* @__const.main.str, i32 0, i32 0), i64 10, i1 false)
  %6 = call noalias i8* @malloc(i64 88) #5
  %7 = bitcast i8* %6 to %struct.student*
  store %struct.student* %7, %struct.student** %2, align 8
  %8 = load %struct.student*, %struct.student** %2, align 8
  %9 = getelementptr inbounds %struct.student, %struct.student* %8, i32 0, i32 0
  %10 = getelementptr inbounds [20 x i8], [20 x i8]* %9, i64 0, i64 0
  %11 = call i32 (i8*, ...) @__isoc99_scanf(i8* getelementptr inbounds ([3 x i8], [3 x i8]* @.str, i64 0, i64 0), i8* %10)
  %12 = load %struct.student*, %struct.student** %2, align 8
  %13 = getelementptr inbounds %struct.student, %struct.student* %12, i32 0, i32 6
  store %struct.student* null, %struct.student** %13, align 8
  br label %14

14:                                               ; preds = %21, %0
  %15 = load %struct.student*, %struct.student** %2, align 8
  %16 = getelementptr inbounds %struct.student, %struct.student* %15, i32 0, i32 0
  %17 = getelementptr inbounds [20 x i8], [20 x i8]* %16, i64 0, i64 0
  %18 = getelementptr inbounds [10 x i8], [10 x i8]* %4, i64 0, i64 0
  %19 = call i32 @strcmp(i8* %17, i8* %18) #6
  %20 = icmp ne i32 %19, 0
  br i1 %20, label %21, label %46

21:                                               ; preds = %14
  %22 = load %struct.student*, %struct.student** %2, align 8
  %23 = getelementptr inbounds %struct.student, %struct.student* %22, i32 0, i32 1
  %24 = getelementptr inbounds [20 x i8], [20 x i8]* %23, i64 0, i64 0
  %25 = load %struct.student*, %struct.student** %2, align 8
  %26 = getelementptr inbounds %struct.student, %struct.student* %25, i32 0, i32 2
  %27 = load %struct.student*, %struct.student** %2, align 8
  %28 = getelementptr inbounds %struct.student, %struct.student* %27, i32 0, i32 3
  %29 = load %struct.student*, %struct.student** %2, align 8
  %30 = getelementptr inbounds %struct.student, %struct.student* %29, i32 0, i32 4
  %31 = getelementptr inbounds [10 x i8], [10 x i8]* %30, i64 0, i64 0
  %32 = load %struct.student*, %struct.student** %2, align 8
  %33 = getelementptr inbounds %struct.student, %struct.student* %32, i32 0, i32 5
  %34 = getelementptr inbounds [20 x i8], [20 x i8]* %33, i64 0, i64 0
  %35 = call i32 (i8*, ...) @__isoc99_scanf(i8* getelementptr inbounds ([15 x i8], [15 x i8]* @.str.1, i64 0, i64 0), i8* %24, i8* %26, i32* %28, i8* %31, i8* %34)
  %36 = load %struct.student*, %struct.student** %2, align 8
  store %struct.student* %36, %struct.student** %3, align 8
  %37 = call noalias i8* @malloc(i64 88) #5
  %38 = bitcast i8* %37 to %struct.student*
  store %struct.student* %38, %struct.student** %2, align 8
  %39 = load %struct.student*, %struct.student** %3, align 8
  %40 = load %struct.student*, %struct.student** %2, align 8
  %41 = getelementptr inbounds %struct.student, %struct.student* %40, i32 0, i32 6
  store %struct.student* %39, %struct.student** %41, align 8
  %42 = load %struct.student*, %struct.student** %2, align 8
  %43 = getelementptr inbounds %struct.student, %struct.student* %42, i32 0, i32 0
  %44 = getelementptr inbounds [20 x i8], [20 x i8]* %43, i64 0, i64 0
  %45 = call i32 (i8*, ...) @__isoc99_scanf(i8* getelementptr inbounds ([3 x i8], [3 x i8]* @.str, i64 0, i64 0), i8* %44)
  br label %14

46:                                               ; preds = %14
  br label %47

47:                                               ; preds = %52, %46
  %48 = load %struct.student*, %struct.student** %2, align 8
  %49 = getelementptr inbounds %struct.student, %struct.student* %48, i32 0, i32 6
  %50 = load %struct.student*, %struct.student** %49, align 8
  %51 = icmp ne %struct.student* %50, null
  br i1 %51, label %52, label %76

52:                                               ; preds = %47
  %53 = load %struct.student*, %struct.student** %2, align 8
  %54 = getelementptr inbounds %struct.student, %struct.student* %53, i32 0, i32 6
  %55 = load %struct.student*, %struct.student** %54, align 8
  store %struct.student* %55, %struct.student** %2, align 8
  %56 = load %struct.student*, %struct.student** %2, align 8
  %57 = getelementptr inbounds %struct.student, %struct.student* %56, i32 0, i32 0
  %58 = getelementptr inbounds [20 x i8], [20 x i8]* %57, i64 0, i64 0
  %59 = load %struct.student*, %struct.student** %2, align 8
  %60 = getelementptr inbounds %struct.student, %struct.student* %59, i32 0, i32 1
  %61 = getelementptr inbounds [20 x i8], [20 x i8]* %60, i64 0, i64 0
  %62 = load %struct.student*, %struct.student** %2, align 8
  %63 = getelementptr inbounds %struct.student, %struct.student* %62, i32 0, i32 2
  %64 = load i8, i8* %63, align 8
  %65 = sext i8 %64 to i32
  %66 = load %struct.student*, %struct.student** %2, align 8
  %67 = getelementptr inbounds %struct.student, %struct.student* %66, i32 0, i32 3
  %68 = load i32, i32* %67, align 4
  %69 = load %struct.student*, %struct.student** %2, align 8
  %70 = getelementptr inbounds %struct.student, %struct.student* %69, i32 0, i32 4
  %71 = getelementptr inbounds [10 x i8], [10 x i8]* %70, i64 0, i64 0
  %72 = load %struct.student*, %struct.student** %2, align 8
  %73 = getelementptr inbounds %struct.student, %struct.student* %72, i32 0, i32 5
  %74 = getelementptr inbounds [20 x i8], [20 x i8]* %73, i64 0, i64 0
  %75 = call i32 (i8*, ...) @printf(i8* getelementptr inbounds ([19 x i8], [19 x i8]* @.str.2, i64 0, i64 0), i8* %58, i8* %61, i32 %65, i32 %68, i8* %71, i8* %74)
  br label %47

76:                                               ; preds = %47
  ret i32 0
}

; Function Attrs: argmemonly nounwind willreturn
declare void @llvm.memcpy.p0i8.p0i8.i64(i8* noalias nocapture writeonly, i8* noalias nocapture readonly, i64, i1 immarg) #1

; Function Attrs: nounwind
declare dso_local noalias i8* @malloc(i64) #2

declare dso_local i32 @__isoc99_scanf(i8*, ...) #3

; Function Attrs: nounwind readonly
declare dso_local i32 @strcmp(i8*, i8*) #4

declare dso_local i32 @printf(i8*, ...) #3


!llvm.module.flags = !{!0}
!llvm.ident = !{!1}

!0 = !{i32 1, !"wchar_size", i32 4}
!1 = !{!"clang version 10.0.0-4ubuntu1 "}
