; ModuleID = 'source-C-CXX/30/1065.c'
source_filename = "source-C-CXX/30/1065.c"
target datalayout = "e-m:e-p270:32:32-p271:32:32-p272:64:64-i64:64-f80:128-n8:16:32:64-S128"
target triple = "x86_64-pc-linux-gnu"

%struct.student = type { [20 x i8], [20 x i8], i8, i32, [10 x i8], [20 x i8], %struct.student* }

@__const.main.str = private unnamed_addr constant [10 x i8] c"end\00\00\00\00\00\00\00", align 1
@.str = private unnamed_addr constant [3 x i8] c"%s\00", align 1
@.str.1 = private unnamed_addr constant [15 x i8] c"%s %c %d %s %s\00", align 1
@.str.2 = private unnamed_addr constant [19 x i8] c"%s %s %c %d %s %s\0A\00", align 1

; Function Attrs: nofree nounwind sspstrong uwtable
define dso_local i32 @main() local_unnamed_addr #0 {
  %1 = tail call noalias align 16 dereferenceable_or_null(88) i8* @malloc(i64 88) #4
  %2 = bitcast i8* %1 to %struct.student*
  %3 = getelementptr inbounds %struct.student, %struct.student* %2, i64 0, i32 0, i64 0
  %4 = tail call i32 (i8*, ...) @__isoc99_scanf(i8* getelementptr inbounds ([3 x i8], [3 x i8]* @.str, i64 0, i64 0), i8* %3)
  %5 = getelementptr inbounds %struct.student, %struct.student* %2, i64 0, i32 6
  store %struct.student* null, %struct.student** %5, align 16, !tbaa !5
  %6 = tail call i32 @strcmp(i8* noundef nonnull dereferenceable(1) %3, i8* noundef nonnull dereferenceable(4) getelementptr inbounds ([10 x i8], [10 x i8]* @__const.main.str, i64 0, i64 0)) #5
  %7 = icmp eq i32 %6, 0
  br i1 %7, label %43, label %13

8:                                                ; preds = %13
  %9 = bitcast i8* %21 to %struct.student*
  %10 = getelementptr inbounds %struct.student, %struct.student* %9, i64 0, i32 6
  %11 = load %struct.student*, %struct.student** %10, align 16, !tbaa !5
  %12 = icmp eq %struct.student* %11, null
  br i1 %12, label %43, label %28

13:                                               ; preds = %0, %13
  %14 = phi %struct.student* [ %22, %13 ], [ %2, %0 ]
  %15 = getelementptr inbounds %struct.student, %struct.student* %14, i64 0, i32 1, i64 0
  %16 = getelementptr inbounds %struct.student, %struct.student* %14, i64 0, i32 2
  %17 = getelementptr inbounds %struct.student, %struct.student* %14, i64 0, i32 3
  %18 = getelementptr inbounds %struct.student, %struct.student* %14, i64 0, i32 4, i64 0
  %19 = getelementptr inbounds %struct.student, %struct.student* %14, i64 0, i32 5, i64 0
  %20 = tail call i32 (i8*, ...) @__isoc99_scanf(i8* getelementptr inbounds ([15 x i8], [15 x i8]* @.str.1, i64 0, i64 0), i8* nonnull %15, i8* nonnull %16, i32* nonnull %17, i8* nonnull %18, i8* nonnull %19)
  %21 = tail call noalias align 16 dereferenceable_or_null(88) i8* @malloc(i64 88) #4
  %22 = bitcast i8* %21 to %struct.student*
  %23 = getelementptr inbounds %struct.student, %struct.student* %22, i64 0, i32 6
  store %struct.student* %14, %struct.student** %23, align 16, !tbaa !5
  %24 = getelementptr inbounds %struct.student, %struct.student* %22, i64 0, i32 0, i64 0
  %25 = tail call i32 (i8*, ...) @__isoc99_scanf(i8* getelementptr inbounds ([3 x i8], [3 x i8]* @.str, i64 0, i64 0), i8* %24)
  %26 = tail call i32 @strcmp(i8* noundef nonnull dereferenceable(1) %24, i8* noundef nonnull dereferenceable(4) getelementptr inbounds ([10 x i8], [10 x i8]* @__const.main.str, i64 0, i64 0)) #5
  %27 = icmp eq i32 %26, 0
  br i1 %27, label %8, label %13, !llvm.loop !11

28:                                               ; preds = %8, %28
  %29 = phi %struct.student* [ %41, %28 ], [ %11, %8 ]
  %30 = getelementptr inbounds %struct.student, %struct.student* %29, i64 0, i32 0, i64 0
  %31 = getelementptr inbounds %struct.student, %struct.student* %29, i64 0, i32 1, i64 0
  %32 = getelementptr inbounds %struct.student, %struct.student* %29, i64 0, i32 2
  %33 = load i8, i8* %32, align 8, !tbaa !13
  %34 = sext i8 %33 to i32
  %35 = getelementptr inbounds %struct.student, %struct.student* %29, i64 0, i32 3
  %36 = load i32, i32* %35, align 4, !tbaa !14
  %37 = getelementptr inbounds %struct.student, %struct.student* %29, i64 0, i32 4, i64 0
  %38 = getelementptr inbounds %struct.student, %struct.student* %29, i64 0, i32 5, i64 0
  %39 = tail call i32 (i8*, ...) @printf(i8* nonnull dereferenceable(1) getelementptr inbounds ([19 x i8], [19 x i8]* @.str.2, i64 0, i64 0), i8* nonnull %30, i8* nonnull %31, i32 %34, i32 %36, i8* nonnull %37, i8* nonnull %38)
  %40 = getelementptr inbounds %struct.student, %struct.student* %29, i64 0, i32 6
  %41 = load %struct.student*, %struct.student** %40, align 8, !tbaa !5
  %42 = icmp eq %struct.student* %41, null
  br i1 %42, label %43, label %28, !llvm.loop !15

43:                                               ; preds = %28, %0, %8
  ret i32 0
}

; Function Attrs: inaccessiblememonly mustprogress nofree nounwind willreturn
declare noalias noundef align 16 i8* @malloc(i64 noundef) local_unnamed_addr #1

; Function Attrs: nofree nounwind
declare noundef i32 @__isoc99_scanf(i8* nocapture noundef readonly, ...) local_unnamed_addr #2

; Function Attrs: argmemonly mustprogress nofree nounwind readonly willreturn
declare i32 @strcmp(i8* nocapture, i8* nocapture) local_unnamed_addr #3

; Function Attrs: nofree nounwind
declare noundef i32 @printf(i8* nocapture noundef readonly, ...) local_unnamed_addr #2


!llvm.module.flags = !{!0, !1, !2, !3}
!llvm.ident = !{!4}

!0 = !{i32 1, !"wchar_size", i32 4}
!1 = !{i32 7, !"PIC Level", i32 2}
!2 = !{i32 7, !"PIE Level", i32 2}
!3 = !{i32 7, !"uwtable", i32 1}
!4 = !{!"clang version 13.0.0"}
!5 = !{!6, !10, i64 80}
!6 = !{!"student", !7, i64 0, !7, i64 20, !7, i64 40, !9, i64 44, !7, i64 48, !7, i64 58, !10, i64 80}
!7 = !{!"omnipotent char", !8, i64 0}
!8 = !{!"Simple C/C++ TBAA"}
!9 = !{!"int", !7, i64 0}
!10 = !{!"any pointer", !7, i64 0}
!11 = distinct !{!11, !12}
!12 = !{!"llvm.loop.mustprogress"}
!13 = !{!6, !7, i64 40}
!14 = !{!6, !9, i64 44}
!15 = distinct !{!15, !12}
